target datalayout = "e-m:e-p270:32:32-p271:32:32-p272:64:64-i64:64-i128:128-f80:128-n8:16:32:64-S128"
target triple = "x86_64-pc-linux-gnu"

%struct.Trigger = type { i32, ptr, i32, i16, i8, i8, i8, i32, i32, i32, i8, i8, i16, i16, ptr, ptr, ptr, ptr, ptr }
%struct.TriggerDesc = type { ptr, i32, i8, i8, i8, i8, i8, i8, i8, i8, i8, i8, i8, i8, i8, i8, i8, i8, i8, i8, i8, i8, i8 }
%struct.TriggerData = type { i32, i32, ptr, ptr, ptr, ptr, ptr, ptr, ptr, ptr, ptr }
%struct.ResultRelInfo = type { i32, i32, ptr, i32, ptr, ptr, i16, ptr, i8, ptr, ptr, ptr, i8, i8, ptr, ptr, ptr, ptr, ptr, ptr, ptr, ptr, ptr, ptr, i8, i32, i32, i32, ptr, ptr, ptr, ptr, ptr, ptr, ptr, i32, i32, ptr, ptr, ptr, ptr, [3 x ptr], ptr, ptr, ptr, i8, ptr, i8, ptr, ptr, ptr, ptr }
%struct.EState = type { i32, i32, ptr, ptr, ptr, i32, ptr, ptr, ptr, ptr, ptr, ptr, ptr, ptr, ptr, ptr, i32, ptr, ptr, ptr, ptr, ptr, ptr, ptr, ptr, ptr, ptr, i64, i64, i32, i32, i8, ptr, ptr, ptr, ptr, ptr, i8, i32, i32, ptr, i32, ptr, ptr, ptr, ptr }
%struct.ExprContext = type { i32, ptr, ptr, ptr, ptr, ptr, ptr, ptr, ptr, ptr, i64, i8, i64, i8, ptr, ptr, ptr, ptr }

@.str.2 = private unnamed_addr constant [10 x i8] c"trigger.c\00", align 1
@.str.62 = private unnamed_addr constant [47 x i8] c"BEFORE STATEMENT trigger cannot return a value\00", align 1
@__func__.ExecBSTruncateTriggers = private unnamed_addr constant [23 x i8] c"ExecBSTruncateTriggers\00", align 1

; Function Attrs: nounwind uwtable
define dso_local void @ExecBSTruncateTriggers(ptr noundef %0, ptr noundef %1) #0 {
  %3 = alloca ptr, align 8
  %4 = alloca ptr, align 8
  %5 = alloca ptr, align 8
  %6 = alloca i32, align 4
  %7 = alloca %struct.TriggerData, align 8
  %8 = alloca i32, align 4
  %9 = alloca ptr, align 8
  %10 = alloca ptr, align 8
  store ptr %0, ptr %3, align 8
  store ptr %1, ptr %4, align 8
  call void @llvm.lifetime.start.p0(i64 8, ptr %5) #12
  call void @llvm.lifetime.start.p0(i64 4, ptr %6) #12
  call void @llvm.lifetime.start.p0(i64 80, ptr %7) #12
  call void @llvm.memset.p0.i64(ptr align 8 %7, i8 0, i64 80, i1 false)
  %11 = load ptr, ptr %4, align 8
  %12 = getelementptr inbounds nuw %struct.ResultRelInfo, ptr %11, i32 0, i32 14
  %13 = load ptr, ptr %12, align 8
  store ptr %13, ptr %5, align 8
  %14 = load ptr, ptr %5, align 8
  %15 = icmp eq ptr %14, null
  br i1 %15, label %16, label %17

16:                                               ; preds = %2
  store i32 1, ptr %8, align 4
  br label %106

17:                                               ; preds = %2
  %18 = load ptr, ptr %5, align 8
  %19 = getelementptr inbounds nuw %struct.TriggerDesc, ptr %18, i32 0, i32 17
  %20 = load i8, ptr %19, align 1, !range !4, !noundef !5
  %21 = trunc i8 %20 to i1
  br i1 %21, label %23, label %22

22:                                               ; preds = %17
  store i32 1, ptr %8, align 4
  br label %106

23:                                               ; preds = %17
  %24 = getelementptr inbounds nuw %struct.TriggerData, ptr %7, i32 0, i32 0
  store i32 441, ptr %24, align 8
  %25 = getelementptr inbounds nuw %struct.TriggerData, ptr %7, i32 0, i32 1
  store i32 11, ptr %25, align 4
  %26 = load ptr, ptr %4, align 8
  %27 = getelementptr inbounds nuw %struct.ResultRelInfo, ptr %26, i32 0, i32 2
  %28 = load ptr, ptr %27, align 8
  %29 = getelementptr inbounds nuw %struct.TriggerData, ptr %7, i32 0, i32 2
  store ptr %28, ptr %29, align 8
  store i32 0, ptr %6, align 4
  br label %30

30:                                               ; preds = %102, %23
  %31 = load i32, ptr %6, align 4
  %32 = load ptr, ptr %5, align 8
  %33 = getelementptr inbounds nuw %struct.TriggerDesc, ptr %32, i32 0, i32 1
  %34 = load i32, ptr %33, align 8
  %35 = icmp slt i32 %31, %34
  br i1 %35, label %36, label %105

36:                                               ; preds = %30
  call void @llvm.lifetime.start.p0(i64 8, ptr %9) #12
  %37 = load ptr, ptr %5, align 8
  %38 = getelementptr inbounds nuw %struct.TriggerDesc, ptr %37, i32 0, i32 0
  %39 = load ptr, ptr %38, align 8
  %40 = load i32, ptr %6, align 4
  %41 = sext i32 %40 to i64
  %42 = getelementptr inbounds %struct.Trigger, ptr %39, i64 %41
  store ptr %42, ptr %9, align 8
  call void @llvm.lifetime.start.p0(i64 8, ptr %10) #12
  %43 = load ptr, ptr %9, align 8
  %44 = getelementptr inbounds nuw %struct.Trigger, ptr %43, i32 0, i32 3
  %45 = load i16, ptr %44, align 4
  %46 = sext i16 %45 to i32
  %47 = and i32 %46, 99
  %48 = icmp eq i32 %47, 34
  br i1 %48, label %50, label %49

49:                                               ; preds = %36
  store i32 4, ptr %8, align 4
  br label %99

50:                                               ; preds = %36
  %51 = load ptr, ptr %3, align 8
  %52 = load ptr, ptr %4, align 8
  %53 = load ptr, ptr %9, align 8
  %54 = getelementptr inbounds nuw %struct.TriggerData, ptr %7, i32 0, i32 1
  %55 = load i32, ptr %54, align 4
  %56 = call zeroext i1 @TriggerEnabled(ptr noundef %51, ptr noundef %52, ptr noundef %53, i32 noundef %55, ptr noundef null, ptr noundef null, ptr noundef null)
  br i1 %56, label %58, label %57

57:                                               ; preds = %50
  store i32 4, ptr %8, align 4
  br label %99

58:                                               ; preds = %50
  %59 = load ptr, ptr %9, align 8
  %60 = getelementptr inbounds nuw %struct.TriggerData, ptr %7, i32 0, i32 5
  store ptr %59, ptr %60, align 8
  %61 = load i32, ptr %6, align 4
  %62 = load ptr, ptr %4, align 8
  %63 = getelementptr inbounds nuw %struct.ResultRelInfo, ptr %62, i32 0, i32 15
  %64 = load ptr, ptr %63, align 8
  %65 = load ptr, ptr %4, align 8
  %66 = getelementptr inbounds nuw %struct.ResultRelInfo, ptr %65, i32 0, i32 17
  %67 = load ptr, ptr %66, align 8
  %68 = load ptr, ptr %3, align 8
  %69 = getelementptr inbounds nuw %struct.EState, ptr %68, i32 0, i32 35
  %70 = load ptr, ptr %69, align 8
  %71 = icmp ne ptr %70, null
  br i1 %71, label %72, label %76

72:                                               ; preds = %58
  %73 = load ptr, ptr %3, align 8
  %74 = getelementptr inbounds nuw %struct.EState, ptr %73, i32 0, i32 35
  %75 = load ptr, ptr %74, align 8
  br label %79

76:                                               ; preds = %58
  %77 = load ptr, ptr %3, align 8
  %78 = call ptr @MakePerTupleExprContext(ptr noundef %77)
  br label %79

79:                                               ; preds = %76, %72
  %80 = phi ptr [ %75, %72 ], [ %78, %76 ]
  %81 = getelementptr inbounds nuw %struct.ExprContext, ptr %80, i32 0, i32 5
  %82 = load ptr, ptr %81, align 8
  %83 = call ptr @ExecCallTriggerFunc(ptr noundef %7, i32 noundef %61, ptr noundef %64, ptr noundef %67, ptr noundef %82)
  store ptr %83, ptr %10, align 8
  %84 = load ptr, ptr %10, align 8
  %85 = icmp ne ptr %84, null
  br i1 %85, label %86, label %98

86:                                               ; preds = %79
  br label %87

87:                                               ; preds = %86
  br i1 true, label %88, label %90

88:                                               ; preds = %87
  %89 = call zeroext i1 @errstart_cold(i32 noundef 21, ptr noundef null) #13
  br i1 %89, label %92, label %95

90:                                               ; preds = %87
  %91 = call zeroext i1 @errstart(i32 noundef 21, ptr noundef null)
  br i1 %91, label %92, label %95

92:                                               ; preds = %90, %88
  %93 = call i32 @errcode(i32 noundef 16908867)
  %94 = call i32 (ptr, ...) @errmsg(ptr noundef @.str.62)
  call void @errfinish(ptr noundef @.str.2, i32 noundef 3273, ptr noundef @__func__.ExecBSTruncateTriggers)
  br label %95

95:                                               ; preds = %92, %90, %88
  unreachable

96:                                               ; No predecessors!
  br label %97

97:                                               ; preds = %96
  br label %98

98:                                               ; preds = %97, %79
  store i32 0, ptr %8, align 4
  br label %99

99:                                               ; preds = %98, %57, %49
  call void @llvm.lifetime.end.p0(i64 8, ptr %10) #12
  call void @llvm.lifetime.end.p0(i64 8, ptr %9) #12
  %100 = load i32, ptr %8, align 4
  switch i32 %100, label %109 [
    i32 0, label %101
    i32 4, label %102
  ]

101:                                              ; preds = %99
  br label %102

102:                                              ; preds = %101, %99
  %103 = load i32, ptr %6, align 4
  %104 = add i32 %103, 1
  store i32 %104, ptr %6, align 4
  br label %30, !llvm.loop !42

105:                                              ; preds = %30
  store i32 0, ptr %8, align 4
  br label %106

106:                                              ; preds = %105, %22, %16
  call void @llvm.lifetime.end.p0(i64 80, ptr %7) #12
  call void @llvm.lifetime.end.p0(i64 4, ptr %6) #12
  call void @llvm.lifetime.end.p0(i64 8, ptr %5) #12
  %107 = load i32, ptr %8, align 4
  switch i32 %107, label %109 [
    i32 0, label %108
    i32 1, label %108
  ]

108:                                              ; preds = %106, %106
  ret void

109:                                              ; preds = %106, %99
  unreachable
}