; Function Attrs: nounwind uwtable
define dso_local void @ExecBSTruncateTriggers(ptr noundef %0, ptr noundef readonly captures(none) %1) local_unnamed_addr #0 {
  %3 = alloca %struct.TriggerData, align 8
  call void @llvm.lifetime.start.p0(i64 80, ptr nonnull %3) #16
  %4 = getelementptr inbounds nuw i8, ptr %3, i64 16
  call void @llvm.memset.p0.i64(ptr noundef nonnull align 8 dereferenceable(80) %4, i8 0, i64 64, i1 false)
  %5 = getelementptr inbounds nuw i8, ptr %1, i64 96
  %6 = load ptr, ptr %5, align 8
  %7 = icmp eq ptr %6, null
  br i1 %7, label %.loopexit, label %8

8:                                                ; preds = %2
  %9 = getelementptr inbounds nuw i8, ptr %6, i64 27
  %10 = load i8, ptr %9, align 1, !range !4, !noundef !5
  %11 = trunc nuw i8 %10 to i1
  br i1 %11, label %12, label %.loopexit

12:                                               ; preds = %8
  store i32 441, ptr %3, align 8
  %13 = getelementptr inbounds nuw i8, ptr %3, i64 4
  store i32 11, ptr %13, align 4
  %14 = getelementptr inbounds nuw i8, ptr %1, i64 8
  %15 = load ptr, ptr %14, align 8
  %16 = getelementptr inbounds nuw i8, ptr %3, i64 8
  store ptr %15, ptr %16, align 8
  %17 = getelementptr inbounds nuw i8, ptr %6, i64 8
  %18 = load i32, ptr %17, align 8
  %19 = icmp sgt i32 %18, 0
  br i1 %19, label %.lr.ph, label %.loopexit

.lr.ph:                                           ; preds = %12
  %20 = getelementptr inbounds nuw i8, ptr %3, i64 32
  %21 = getelementptr inbounds nuw i8, ptr %1, i64 104
  %22 = getelementptr inbounds nuw i8, ptr %1, i64 120
  %23 = getelementptr inbounds nuw i8, ptr %0, i64 264
  br label %24

24:                                               ; preds = %.lr.ph, %50
  %indvars.iv = phi i64 [ 0, %.lr.ph ], [ %indvars.iv.next, %50 ]
  %25 = load ptr, ptr %6, align 8
  %26 = getelementptr inbounds nuw %struct.Trigger, ptr %25, i64 %indvars.iv
  %27 = getelementptr inbounds nuw i8, ptr %26, i64 20
  %28 = load i16, ptr %27, align 4
  %29 = and i16 %28, 99
  %30 = icmp eq i16 %29, 34
  br i1 %30, label %31, label %50

31:                                               ; preds = %24
  %32 = load i32, ptr %13, align 4
  %33 = call fastcc zeroext i1 @TriggerEnabled(ptr noundef %0, ptr noundef %1, ptr noundef nonnull %26, i32 noundef %32, ptr noundef null, ptr noundef null, ptr noundef null)
  br i1 %33, label %34, label %50

34:                                               ; preds = %31
  store ptr %26, ptr %20, align 8
  %35 = load ptr, ptr %21, align 8
  %36 = load ptr, ptr %22, align 8
  %37 = load ptr, ptr %23, align 8
  %.not = icmp eq ptr %37, null
  br i1 %.not, label %38, label %40

38:                                               ; preds = %34
  %39 = call ptr @MakePerTupleExprContext(ptr noundef nonnull %0) #16
  br label %40

40:                                               ; preds = %34, %38
  %41 = phi ptr [ %39, %38 ], [ %37, %34 ]
  %42 = getelementptr inbounds nuw i8, ptr %41, i64 40
  %43 = load ptr, ptr %42, align 8
  %44 = trunc nuw nsw i64 %indvars.iv to i32
  %45 = call fastcc ptr @ExecCallTriggerFunc(ptr noundef %3, i32 noundef %44, ptr noundef %35, ptr noundef %36, ptr noundef %43)
  %.not22 = icmp eq ptr %45, null
  br i1 %.not22, label %50, label %46

46:                                               ; preds = %40
  %47 = call zeroext i1 @errstart_cold(i32 noundef 21, ptr noundef null) #17
  call void @llvm.assume(i1 %47)
  %48 = call i32 @errcode(i32 noundef 16908867) #16
  %49 = call i32 (ptr, ...) @errmsg(ptr noundef nonnull @.str.62) #16
  call void @errfinish(ptr noundef nonnull @.str.2, i32 noundef 3273, ptr noundef nonnull @__func__.ExecBSTruncateTriggers) #16
  unreachable

50:                                               ; preds = %40, %31, %24
  %indvars.iv.next = add nuw nsw i64 %indvars.iv, 1
  %51 = load i32, ptr %17, align 8
  %52 = sext i32 %51 to i64
  %53 = icmp slt i64 %indvars.iv.next, %52
  br i1 %53, label %24, label %.loopexit, !llvm.loop !41

.loopexit:                                        ; preds = %50, %12, %8, %2
  call void @llvm.lifetime.end.p0(i64 80, ptr nonnull %3) #16
  ret void
}